ARM GAS  C:\Users\Michi\AppData\Local\Temp\ccSPMehu.s 			page 1


   1              		.syntax unified
   2              		.cpu cortex-m3
   3              		.fpu softvfp
   4              		.eabi_attribute 20, 1
   5              		.eabi_attribute 21, 1
   6              		.eabi_attribute 23, 3
   7              		.eabi_attribute 24, 1
   8              		.eabi_attribute 25, 1
   9              		.eabi_attribute 26, 1
  10              		.eabi_attribute 30, 1
  11              		.eabi_attribute 34, 1
  12              		.eabi_attribute 18, 4
  13              		.thumb
  14              		.syntax unified
  15              		.file	"main.c"
  16              		.text
  17              	.Ltext0:
  18              		.cfi_sections	.debug_frame
  19              		.section	.text.Init,"ax",%progbits
  20              		.align	2
  21              		.global	Init
  22              		.thumb
  23              		.thumb_func
  24              		.type	Init, %function
  25              	Init:
  26              	.LFB65:
  27              		.file 1 "main.c"
   1:main.c        **** /* ========================================
   2:main.c        ****  * Helligkeitsmessung mit einfacher LED in Sperrrichtung
   3:main.c        ****  * über Entladezeit der Sperrschichtkapazität
   4:main.c        ****  * ========================================
   5:main.c        **** */
   6:main.c        **** #include "project.h"
   7:main.c        **** #include <stdio.h>
   8:main.c        **** 
   9:main.c        **** void Init();
  10:main.c        **** uint16_t MeasureBrightness();
  11:main.c        **** 
  12:main.c        **** int main(void)
  13:main.c        **** {
  14:main.c        ****     Init();
  15:main.c        ****     UART_PutString("Initialized.\n\r");
  16:main.c        ****     
  17:main.c        ****     char max[20];
  18:main.c        ****     sprintf(max, "max: %i", UINT16_MAX);
  19:main.c        ****     UART_PutString(max);
  20:main.c        ****     
  21:main.c        ****     for(;;)
  22:main.c        ****     {
  23:main.c        ****         uint16_t measurement = MeasureBrightness();
  24:main.c        ****         char result[40];
  25:main.c        ****         sprintf(result, "%i\n\r", measurement);
  26:main.c        ****         UART_PutString(result);
  27:main.c        ****         CyDelay(1000);
  28:main.c        ****     }
  29:main.c        **** }
  30:main.c        **** 
ARM GAS  C:\Users\Michi\AppData\Local\Temp\ccSPMehu.s 			page 2


  31:main.c        **** void Init()
  32:main.c        **** {
  28              		.loc 1 32 0
  29              		.cfi_startproc
  30              		@ args = 0, pretend = 0, frame = 0
  31              		@ frame_needed = 0, uses_anonymous_args = 0
  32 0000 08B5     		push	{r3, lr}
  33              		.cfi_def_cfa_offset 8
  34              		.cfi_offset 3, -8
  35              		.cfi_offset 14, -4
  33:main.c        ****     UART_Start();
  36              		.loc 1 33 0
  37 0002 FFF7FEFF 		bl	UART_Start
  38              	.LVL0:
  39 0006 08BD     		pop	{r3, pc}
  40              		.cfi_endproc
  41              	.LFE65:
  42              		.size	Init, .-Init
  43              		.section	.text.MeasureBrightness,"ax",%progbits
  44              		.align	2
  45              		.global	MeasureBrightness
  46              		.thumb
  47              		.thumb_func
  48              		.type	MeasureBrightness, %function
  49              	MeasureBrightness:
  50              	.LFB66:
  34:main.c        **** }
  35:main.c        **** 
  36:main.c        **** uint16_t MeasureBrightness()
  37:main.c        **** {
  51              		.loc 1 37 0
  52              		.cfi_startproc
  53              		@ args = 0, pretend = 0, frame = 8
  54              		@ frame_needed = 0, uses_anonymous_args = 0
  55 0000 10B5     		push	{r4, lr}
  56              		.cfi_def_cfa_offset 8
  57              		.cfi_offset 4, -8
  58              		.cfi_offset 14, -4
  59 0002 82B0     		sub	sp, sp, #8
  60              		.cfi_def_cfa_offset 16
  61              	.LVL1:
  38:main.c        ****     uint16_t ticks = 0;
  39:main.c        ****     volatile uint8_t pinState = 1;
  62              		.loc 1 39 0
  63 0004 0124     		movs	r4, #1
  64 0006 8DF80740 		strb	r4, [sp, #7]
  40:main.c        ****     
  41:main.c        ****     // drive pin high to charge capacitance
  42:main.c        ****     Sensor_Pin_SetDriveMode(Sensor_Pin_DM_OD_HI);
  65              		.loc 1 42 0
  66 000a 0A20     		movs	r0, #10
  67 000c FFF7FEFF 		bl	Sensor_Pin_SetDriveMode
  68              	.LVL2:
  43:main.c        ****     Sensor_Pin_Write(1);    
  69              		.loc 1 43 0
  70 0010 2046     		mov	r0, r4
  71 0012 FFF7FEFF 		bl	Sensor_Pin_Write
ARM GAS  C:\Users\Michi\AppData\Local\Temp\ccSPMehu.s 			page 3


  72              	.LVL3:
  44:main.c        ****     // set pin to hiZ tri-state 
  45:main.c        ****     Sensor_Pin_SetDriveMode(Sensor_Pin_DM_DIG_HIZ);  
  73              		.loc 1 45 0
  74 0016 0220     		movs	r0, #2
  75 0018 FFF7FEFF 		bl	Sensor_Pin_SetDriveMode
  76              	.LVL4:
  46:main.c        ****     
  47:main.c        ****     for(ticks = 0; (pinState && ( ticks < UINT16_MAX )); ticks++)
  77              		.loc 1 47 0
  78 001c 0024     		movs	r4, #0
  79 001e 08E0     		b	.L4
  80              	.LVL5:
  81              	.L6:
  48:main.c        ****     {
  49:main.c        ****         ticks++;
  50:main.c        ****         pinState = Sensor_Pin_Read();
  82              		.loc 1 50 0 discriminator 4
  83 0020 FFF7FEFF 		bl	Sensor_Pin_Read
  84              	.LVL6:
  85 0024 8DF80700 		strb	r0, [sp, #7]
  51:main.c        ****         CyDelayUs(1);
  86              		.loc 1 51 0 discriminator 4
  87 0028 0120     		movs	r0, #1
  88 002a FFF7FEFF 		bl	CyDelayUs
  89              	.LVL7:
  47:main.c        ****     {
  90              		.loc 1 47 0 discriminator 4
  91 002e 0234     		adds	r4, r4, #2
  92              	.LVL8:
  93 0030 A4B2     		uxth	r4, r4
  94              	.LVL9:
  95              	.L4:
  47:main.c        ****     {
  96              		.loc 1 47 0 is_stmt 0 discriminator 1
  97 0032 9DF80730 		ldrb	r3, [sp, #7]	@ zero_extendqisi2
  98 0036 13F0FF0F 		tst	r3, #255
  99 003a 03D0     		beq	.L5
  47:main.c        ****     {
 100              		.loc 1 47 0 discriminator 3
 101 003c 4FF6FF73 		movw	r3, #65535
 102 0040 9C42     		cmp	r4, r3
 103 0042 EDD1     		bne	.L6
 104              	.L5:
  52:main.c        ****     }
  53:main.c        ****     
  54:main.c        ****     Sensor_Pin_SetDriveMode(Sensor_Pin_DM_OD_LO);          
 105              		.loc 1 54 0 is_stmt 1
 106 0044 0820     		movs	r0, #8
 107 0046 FFF7FEFF 		bl	Sensor_Pin_SetDriveMode
 108              	.LVL10:
  55:main.c        ****     return ticks;
  56:main.c        **** }
 109              		.loc 1 56 0
 110 004a 2046     		mov	r0, r4
 111 004c 02B0     		add	sp, sp, #8
 112              		.cfi_def_cfa_offset 8
ARM GAS  C:\Users\Michi\AppData\Local\Temp\ccSPMehu.s 			page 4


 113              		@ sp needed
 114 004e 10BD     		pop	{r4, pc}
 115              		.cfi_endproc
 116              	.LFE66:
 117              		.size	MeasureBrightness, .-MeasureBrightness
 118              		.section	.text.main,"ax",%progbits
 119              		.align	2
 120              		.global	main
 121              		.thumb
 122              		.thumb_func
 123              		.type	main, %function
 124              	main:
 125              	.LFB64:
  13:main.c        ****     Init();
 126              		.loc 1 13 0
 127              		.cfi_startproc
 128              		@ args = 0, pretend = 0, frame = 64
 129              		@ frame_needed = 0, uses_anonymous_args = 0
 130 0000 00B5     		push	{lr}
 131              		.cfi_def_cfa_offset 4
 132              		.cfi_offset 14, -4
 133 0002 91B0     		sub	sp, sp, #68
 134              		.cfi_def_cfa_offset 72
  14:main.c        ****     UART_PutString("Initialized.\n\r");
 135              		.loc 1 14 0
 136 0004 FFF7FEFF 		bl	Init
 137              	.LVL11:
  15:main.c        ****     
 138              		.loc 1 15 0
 139 0008 0D48     		ldr	r0, .L11
 140 000a FFF7FEFF 		bl	UART_PutString
 141              	.LVL12:
  18:main.c        ****     UART_PutString(max);
 142              		.loc 1 18 0
 143 000e 4FF6FF72 		movw	r2, #65535
 144 0012 0C49     		ldr	r1, .L11+4
 145 0014 0BA8     		add	r0, sp, #44
 146 0016 FFF7FEFF 		bl	sprintf
 147              	.LVL13:
  19:main.c        ****     
 148              		.loc 1 19 0
 149 001a 0BA8     		add	r0, sp, #44
 150 001c FFF7FEFF 		bl	UART_PutString
 151              	.LVL14:
 152              	.L9:
 153              	.LBB2:
  23:main.c        ****         char result[40];
 154              		.loc 1 23 0 discriminator 1
 155 0020 FFF7FEFF 		bl	MeasureBrightness
 156              	.LVL15:
  25:main.c        ****         UART_PutString(result);
 157              		.loc 1 25 0 discriminator 1
 158 0024 0246     		mov	r2, r0
 159 0026 0849     		ldr	r1, .L11+8
 160 0028 01A8     		add	r0, sp, #4
 161              	.LVL16:
 162 002a FFF7FEFF 		bl	sprintf
ARM GAS  C:\Users\Michi\AppData\Local\Temp\ccSPMehu.s 			page 5


 163              	.LVL17:
  26:main.c        ****         CyDelay(1000);
 164              		.loc 1 26 0 discriminator 1
 165 002e 01A8     		add	r0, sp, #4
 166 0030 FFF7FEFF 		bl	UART_PutString
 167              	.LVL18:
  27:main.c        ****     }
 168              		.loc 1 27 0 discriminator 1
 169 0034 4FF47A70 		mov	r0, #1000
 170 0038 FFF7FEFF 		bl	CyDelay
 171              	.LVL19:
 172 003c F0E7     		b	.L9
 173              	.L12:
 174 003e 00BF     		.align	2
 175              	.L11:
 176 0040 00000000 		.word	.LC0
 177 0044 10000000 		.word	.LC1
 178 0048 18000000 		.word	.LC2
 179              	.LBE2:
 180              		.cfi_endproc
 181              	.LFE64:
 182              		.size	main, .-main
 183              		.section	.rodata.str1.4,"aMS",%progbits,1
 184              		.align	2
 185              	.LC0:
 186 0000 496E6974 		.ascii	"Initialized.\012\015\000"
 186      69616C69 
 186      7A65642E 
 186      0A0D00
 187 000f 00       		.space	1
 188              	.LC1:
 189 0010 6D61783A 		.ascii	"max: %i\000"
 189      20256900 
 190              	.LC2:
 191 0018 25690A0D 		.ascii	"%i\012\015\000"
 191      00
 192              		.text
 193              	.Letext0:
 194              		.file 2 "c:\\program files (x86)\\cypress\\psoc creator\\4.4\\psoc creator\\import\\gnu\\arm\\5.4.
 195              		.file 3 "c:\\program files (x86)\\cypress\\psoc creator\\4.4\\psoc creator\\import\\gnu\\arm\\5.4.
 196              		.file 4 "Generated_Source\\PSoC5/cytypes.h"
 197              		.file 5 "Generated_Source\\PSoC5/UART.h"
 198              		.file 6 "Generated_Source\\PSoC5/Sensor_Pin.h"
 199              		.file 7 "Generated_Source\\PSoC5/CyLib.h"
 200              		.file 8 "c:\\program files (x86)\\cypress\\psoc creator\\4.4\\psoc creator\\import\\gnu\\arm\\5.4.
 201              		.file 9 "Generated_Source\\PSoC5/core_cm3.h"