ARM GAS  C:\Users\Michi\AppData\Local\Temp\ccbkjcLr.s 			page 1


   1              		.syntax unified
   2              		.cpu cortex-m3
   3              		.fpu softvfp
   4              		.eabi_attribute 20, 1
   5              		.eabi_attribute 21, 1
   6              		.eabi_attribute 23, 3
   7              		.eabi_attribute 24, 1
   8              		.eabi_attribute 25, 1
   9              		.eabi_attribute 26, 1
  10              		.eabi_attribute 30, 1
  11              		.eabi_attribute 34, 1
  12              		.eabi_attribute 18, 4
  13              		.thumb
  14              		.syntax unified
  15              		.file	"main.c"
  16              		.text
  17              	.Ltext0:
  18              		.cfi_sections	.debug_frame
  19              		.section	.text.tx_data,"ax",%progbits
  20              		.align	2
  21              		.global	tx_data
  22              		.thumb
  23              		.thumb_func
  24              		.type	tx_data, %function
  25              	tx_data:
  26              	.LFB64:
  27              		.file 1 "main.c"
   1:main.c        **** #include "project.h"
   2:main.c        **** void tx_data(int32_t dword);
   3:main.c        **** int main(void)
   4:main.c        **** {   
   5:main.c        ****     UART_Start();
   6:main.c        ****     ADC_SAR_Start();
   7:main.c        ****     ADC_SAR_StartConvert();  
   8:main.c        ****     
   9:main.c        ****     while(1)
  10:main.c        ****     {          
  11:main.c        ****         if(ADC_SAR_IsEndConversion(ADC_SAR_WAIT_FOR_RESULT)) 
  12:main.c        ****         {
  13:main.c        ****             int16_t data = ADC_SAR_GetResult16();   
  14:main.c        ****             uint16_t pin_state = (VIN_Read()) ? 0x0FFF : 0x0000;
  15:main.c        ****             tx_data((data << 16) | pin_state);
  16:main.c        ****         }
  17:main.c        ****     }
  18:main.c        **** }
  19:main.c        **** 
  20:main.c        **** 
  21:main.c        **** void tx_data(int32_t dword)
  22:main.c        **** {
  28              		.loc 1 22 0
  29              		.cfi_startproc
  30              		@ args = 0, pretend = 0, frame = 0
  31              		@ frame_needed = 0, uses_anonymous_args = 0
  32              	.LVL0:
  33 0000 10B5     		push	{r4, lr}
  34              		.cfi_def_cfa_offset 8
  35              		.cfi_offset 4, -8
ARM GAS  C:\Users\Michi\AppData\Local\Temp\ccbkjcLr.s 			page 2


  36              		.cfi_offset 14, -4
  37 0002 0446     		mov	r4, r0
  23:main.c        ****     // sync
  24:main.c        ****     UART_PutChar('M');
  38              		.loc 1 24 0
  39 0004 4D20     		movs	r0, #77
  40              	.LVL1:
  41 0006 FFF7FEFF 		bl	UART_PutChar
  42              	.LVL2:
  25:main.c        ****     
  26:main.c        ****     // 0xADC ADC PIN PIN
  27:main.c        ****     // ADC data:
  28:main.c        ****     // high byte
  29:main.c        ****     UART_PutChar(dword >> 24);
  43              		.loc 1 29 0
  44 000a 200E     		lsrs	r0, r4, #24
  45 000c FFF7FEFF 		bl	UART_PutChar
  46              	.LVL3:
  30:main.c        ****     // low byte
  31:main.c        ****     UART_PutChar((dword >> 16) & 0xFF);
  47              		.loc 1 31 0
  48 0010 C4F30740 		ubfx	r0, r4, #16, #8
  49 0014 FFF7FEFF 		bl	UART_PutChar
  50              	.LVL4:
  32:main.c        ****     // pin state:
  33:main.c        ****     // high byte
  34:main.c        ****     UART_PutChar(dword >> 8);
  51              		.loc 1 34 0
  52 0018 C4F30720 		ubfx	r0, r4, #8, #8
  53 001c FFF7FEFF 		bl	UART_PutChar
  54              	.LVL5:
  35:main.c        ****     // low byte
  36:main.c        ****     UART_PutChar(dword & 0xFF);
  55              		.loc 1 36 0
  56 0020 E0B2     		uxtb	r0, r4
  57 0022 FFF7FEFF 		bl	UART_PutChar
  58              	.LVL6:
  37:main.c        ****     CyDelayUs(1);
  59              		.loc 1 37 0
  60 0026 0120     		movs	r0, #1
  61 0028 FFF7FEFF 		bl	CyDelayUs
  62              	.LVL7:
  63 002c 10BD     		pop	{r4, pc}
  64              		.cfi_endproc
  65              	.LFE64:
  66              		.size	tx_data, .-tx_data
  67 002e 00BF     		.section	.text.main,"ax",%progbits
  68              		.align	2
  69              		.global	main
  70              		.thumb
  71              		.thumb_func
  72              		.type	main, %function
  73              	main:
  74              	.LFB63:
   4:main.c        ****     UART_Start();
  75              		.loc 1 4 0
  76              		.cfi_startproc
ARM GAS  C:\Users\Michi\AppData\Local\Temp\ccbkjcLr.s 			page 3


  77              		@ args = 0, pretend = 0, frame = 0
  78              		@ frame_needed = 0, uses_anonymous_args = 0
  79 0000 10B5     		push	{r4, lr}
  80              		.cfi_def_cfa_offset 8
  81              		.cfi_offset 4, -8
  82              		.cfi_offset 14, -4
   5:main.c        ****     ADC_SAR_Start();
  83              		.loc 1 5 0
  84 0002 FFF7FEFF 		bl	UART_Start
  85              	.LVL8:
   6:main.c        ****     ADC_SAR_StartConvert();  
  86              		.loc 1 6 0
  87 0006 FFF7FEFF 		bl	ADC_SAR_Start
  88              	.LVL9:
   7:main.c        ****     
  89              		.loc 1 7 0
  90 000a FFF7FEFF 		bl	ADC_SAR_StartConvert
  91              	.LVL10:
  92              	.L4:
  11:main.c        ****         {
  93              		.loc 1 11 0
  94 000e 0020     		movs	r0, #0
  95 0010 FFF7FEFF 		bl	ADC_SAR_IsEndConversion
  96              	.LVL11:
  97 0014 0028     		cmp	r0, #0
  98 0016 FAD0     		beq	.L4
  99              	.LBB2:
  13:main.c        ****             uint16_t pin_state = (VIN_Read()) ? 0x0FFF : 0x0000;
 100              		.loc 1 13 0
 101 0018 FFF7FEFF 		bl	ADC_SAR_GetResult16
 102              	.LVL12:
 103 001c 0446     		mov	r4, r0
 104              	.LVL13:
  14:main.c        ****             tx_data((data << 16) | pin_state);
 105              		.loc 1 14 0
 106 001e FFF7FEFF 		bl	VIN_Read
 107              	.LVL14:
 108 0022 10B1     		cbz	r0, .L7
 109 0024 40F6FF70 		movw	r0, #4095
 110 0028 00E0     		b	.L5
 111              	.L7:
 112 002a 0020     		movs	r0, #0
 113              	.L5:
 114              	.LVL15:
  15:main.c        ****         }
 115              		.loc 1 15 0 discriminator 4
 116 002c 40EA0440 		orr	r0, r0, r4, lsl #16
 117              	.LVL16:
 118 0030 FFF7FEFF 		bl	tx_data
 119              	.LVL17:
 120 0034 EBE7     		b	.L4
 121              	.LBE2:
 122              		.cfi_endproc
 123              	.LFE63:
 124              		.size	main, .-main
 125 0036 00BF     		.text
 126              	.Letext0:
ARM GAS  C:\Users\Michi\AppData\Local\Temp\ccbkjcLr.s 			page 4


 127              		.file 2 "c:\\program files (x86)\\cypress\\psoc creator\\4.4\\psoc creator\\import\\gnu\\arm\\5.4.
 128              		.file 3 "c:\\program files (x86)\\cypress\\psoc creator\\4.4\\psoc creator\\import\\gnu\\arm\\5.4.
 129              		.file 4 "Generated_Source\\PSoC5/UART.h"
 130              		.file 5 "Generated_Source\\PSoC5/CyLib.h"
 131              		.file 6 "Generated_Source\\PSoC5/ADC_SAR.h"
 132              		.file 7 "Generated_Source\\PSoC5/VIN.h"
 133              		.file 8 "Generated_Source\\PSoC5/core_cm3.h"