ARM GAS  C:\Users\hasel\AppData\Local\Temp\ccDGC0vk.s 			page 1


   1              		.syntax unified
   2              		.cpu cortex-m3
   3              		.fpu softvfp
   4              		.eabi_attribute 20, 1
   5              		.eabi_attribute 21, 1
   6              		.eabi_attribute 23, 3
   7              		.eabi_attribute 24, 1
   8              		.eabi_attribute 25, 1
   9              		.eabi_attribute 26, 1
  10              		.eabi_attribute 30, 1
  11              		.eabi_attribute 34, 1
  12              		.eabi_attribute 18, 4
  13              		.thumb
  14              		.syntax unified
  15              		.file	"main.c"
  16              		.text
  17              	.Ltext0:
  18              		.cfi_sections	.debug_frame
  19              		.section	.text.trig,"ax",%progbits
  20              		.align	2
  21              		.global	trig
  22              		.thumb
  23              		.thumb_func
  24              		.type	trig, %function
  25              	trig:
  26              	.LFB64:
  27              		.file 1 "main.c"
   1:main.c        **** #include "project.h"
   2:main.c        **** #include <stdio.h>
   3:main.c        **** 
   4:main.c        **** typedef enum phase
   5:main.c        **** {
   6:main.c        ****     REF = 0,
   7:main.c        ****     RESULT
   8:main.c        **** }phase;
   9:main.c        **** 
  10:main.c        **** CY_ISR(trig)
  11:main.c        **** {
  28              		.loc 1 11 0
  29              		.cfi_startproc
  30              		@ args = 0, pretend = 0, frame = 0
  31              		@ frame_needed = 0, uses_anonymous_args = 0
  32              		@ link register save eliminated.
  33 0000 7047     		bx	lr
  34              		.cfi_endproc
  35              	.LFE64:
  36              		.size	trig, .-trig
  37 0002 00BF     		.section	.text.write_adc_val,"ax",%progbits
  38              		.align	2
  39              		.global	write_adc_val
  40              		.thumb
  41              		.thumb_func
  42              		.type	write_adc_val, %function
  43              	write_adc_val:
  44              	.LFB66:
  12:main.c        **** 
  13:main.c        **** }
ARM GAS  C:\Users\hasel\AppData\Local\Temp\ccDGC0vk.s 			page 2


  14:main.c        **** void discharge(void);
  15:main.c        **** void measure(enum phase p, uint32_t* dst);
  16:main.c        **** void write_adc_val(void);
  17:main.c        **** 
  18:main.c        **** int main(void)
  19:main.c        **** {
  20:main.c        ****     CyGlobalIntEnable; 
  21:main.c        **** //    ADC_SAR_Start();
  22:main.c        **** //    ADC_SAR_StartConvert();
  23:main.c        ****     UART_Start();
  24:main.c        ****     UART_PutString("Starting...");
  25:main.c        ****     char res[100];
  26:main.c        ****     for(;;)
  27:main.c        ****     {      
  28:main.c        ****         static uint32_t ticks[2] = {0};
  29:main.c        ****         discharge();       
  30:main.c        ****         measure(REF, ticks);    
  31:main.c        ****         
  32:main.c        ****         sprintf(res, "Ref: %u\n\r",ticks[REF]);
  33:main.c        ****         UART_PutString(res);
  34:main.c        ****         
  35:main.c        ****         discharge();        
  36:main.c        ****         measure(RESULT, ticks);
  37:main.c        ****         
  38:main.c        ****         sprintf(res, "Result: %u\n\r",ticks[RESULT]);
  39:main.c        ****         UART_PutString(res);  
  40:main.c        ****         CyDelay(100);
  41:main.c        ****     }
  42:main.c        **** }
  43:main.c        **** 
  44:main.c        **** void write_adc_val()
  45:main.c        **** {
  45              		.loc 1 45 0
  46              		.cfi_startproc
  47              		@ args = 0, pretend = 0, frame = 0
  48              		@ frame_needed = 0, uses_anonymous_args = 0
  49              		.loc 1 45 0
  50 0000 10B5     		push	{r4, lr}
  51              		.cfi_def_cfa_offset 8
  52              		.cfi_offset 4, -8
  53              		.cfi_offset 14, -4
  46:main.c        ****     static char adc_res[100];
  47:main.c        ****     if(ADC_SAR_IsEndConversion(ADC_SAR_WAIT_FOR_RESULT)!= 0) 
  54              		.loc 1 47 0
  55 0002 0020     		movs	r0, #0
  56 0004 FFF7FEFF 		bl	ADC_SAR_IsEndConversion
  57              	.LVL0:
  58 0008 50B1     		cbz	r0, .L2
  59              	.LBB2:
  48:main.c        ****     {        
  49:main.c        ****         int16 result = ADC_SAR_GetResult16();    
  60              		.loc 1 49 0
  61 000a FFF7FEFF 		bl	ADC_SAR_GetResult16
  62              	.LVL1:
  50:main.c        ****         sprintf(adc_res, "ADC reading: %d\n\r", result);
  63              		.loc 1 50 0
  64 000e 054C     		ldr	r4, .L5
ARM GAS  C:\Users\hasel\AppData\Local\Temp\ccDGC0vk.s 			page 3


  65 0010 0246     		mov	r2, r0
  66 0012 0549     		ldr	r1, .L5+4
  67 0014 2046     		mov	r0, r4
  68              	.LVL2:
  69 0016 FFF7FEFF 		bl	sprintf
  70              	.LVL3:
  51:main.c        ****         UART_PutString(adc_res);
  71              		.loc 1 51 0
  72 001a 2046     		mov	r0, r4
  73 001c FFF7FEFF 		bl	UART_PutString
  74              	.LVL4:
  75              	.L2:
  76 0020 10BD     		pop	{r4, pc}
  77              	.L6:
  78 0022 00BF     		.align	2
  79              	.L5:
  80 0024 00000000 		.word	.LANCHOR0
  81 0028 00000000 		.word	.LC0
  82              	.LBE2:
  83              		.cfi_endproc
  84              	.LFE66:
  85              		.size	write_adc_val, .-write_adc_val
  86              		.section	.text.discharge,"ax",%progbits
  87              		.align	2
  88              		.global	discharge
  89              		.thumb
  90              		.thumb_func
  91              		.type	discharge, %function
  92              	discharge:
  93              	.LFB67:
  52:main.c        ****     }
  53:main.c        **** }
  54:main.c        **** 
  55:main.c        **** void discharge()
  56:main.c        **** {
  94              		.loc 1 56 0
  95              		.cfi_startproc
  96              		@ args = 0, pretend = 0, frame = 0
  97              		@ frame_needed = 0, uses_anonymous_args = 0
  98 0000 08B5     		push	{r3, lr}
  99              		.cfi_def_cfa_offset 8
 100              		.cfi_offset 3, -8
 101              		.cfi_offset 14, -4
  57:main.c        ****     P_discharge_Write(0);
 102              		.loc 1 57 0
 103 0002 0020     		movs	r0, #0
 104 0004 FFF7FEFF 		bl	P_discharge_Write
 105              	.LVL5:
  58:main.c        ****     CyDelay(5);
 106              		.loc 1 58 0
 107 0008 0520     		movs	r0, #5
 108 000a FFF7FEFF 		bl	CyDelay
 109              	.LVL6:
  59:main.c        ****     P_discharge_Write(1);
 110              		.loc 1 59 0
 111 000e 0120     		movs	r0, #1
 112 0010 FFF7FEFF 		bl	P_discharge_Write
ARM GAS  C:\Users\hasel\AppData\Local\Temp\ccDGC0vk.s 			page 4


 113              	.LVL7:
 114 0014 08BD     		pop	{r3, pc}
 115              		.cfi_endproc
 116              	.LFE67:
 117              		.size	discharge, .-discharge
 118 0016 00BF     		.section	.text.measure,"ax",%progbits
 119              		.align	2
 120              		.global	measure
 121              		.thumb
 122              		.thumb_func
 123              		.type	measure, %function
 124              	measure:
 125              	.LFB68:
  60:main.c        **** }
  61:main.c        **** 
  62:main.c        **** void measure(enum phase p, uint32_t* dst)
  63:main.c        **** {    
 126              		.loc 1 63 0
 127              		.cfi_startproc
 128              		@ args = 0, pretend = 0, frame = 8
 129              		@ frame_needed = 0, uses_anonymous_args = 0
 130              	.LVL8:
 131 0000 30B5     		push	{r4, r5, lr}
 132              		.cfi_def_cfa_offset 12
 133              		.cfi_offset 4, -12
 134              		.cfi_offset 5, -8
 135              		.cfi_offset 14, -4
 136 0002 83B0     		sub	sp, sp, #12
 137              		.cfi_def_cfa_offset 24
 138 0004 0D46     		mov	r5, r1
  64:main.c        ****     volatile uint8_t pin_state = 0;
 139              		.loc 1 64 0
 140 0006 0023     		movs	r3, #0
 141 0008 8DF80730 		strb	r3, [sp, #7]
  65:main.c        ****     uint32_t ticks;
  66:main.c        ****     switch(p)
 142              		.loc 1 66 0
 143 000c 10B1     		cbz	r0, .L11
 144 000e 0128     		cmp	r0, #1
 145 0010 1BD0     		beq	.L12
 146 0012 34E0     		b	.L9
 147              	.L11:
  67:main.c        ****     {
  68:main.c        ****         case REF:
  69:main.c        ****             P_charge_ref_Write(1);
 148              		.loc 1 69 0
 149 0014 0120     		movs	r0, #1
 150              	.LVL9:
 151 0016 FFF7FEFF 		bl	P_charge_ref_Write
 152              	.LVL10:
  70:main.c        ****             for(ticks = 0; (!pin_state && ( ticks < UINT16_MAX )); ticks++)
 153              		.loc 1 70 0
 154 001a 0024     		movs	r4, #0
 155 001c 07E0     		b	.L13
 156              	.LVL11:
 157              	.L15:
  71:main.c        ****             {        
ARM GAS  C:\Users\hasel\AppData\Local\Temp\ccDGC0vk.s 			page 5


  72:main.c        ****                 pin_state = P_sense_Read();
 158              		.loc 1 72 0 discriminator 4
 159 001e FFF7FEFF 		bl	P_sense_Read
 160              	.LVL12:
 161 0022 8DF80700 		strb	r0, [sp, #7]
  73:main.c        ****                 CyDelayUs(1);
 162              		.loc 1 73 0 discriminator 4
 163 0026 0120     		movs	r0, #1
 164 0028 FFF7FEFF 		bl	CyDelayUs
 165              	.LVL13:
  70:main.c        ****             for(ticks = 0; (!pin_state && ( ticks < UINT16_MAX )); ticks++)
 166              		.loc 1 70 0 discriminator 4
 167 002c 0134     		adds	r4, r4, #1
 168              	.LVL14:
 169              	.L13:
  70:main.c        ****             for(ticks = 0; (!pin_state && ( ticks < UINT16_MAX )); ticks++)
 170              		.loc 1 70 0 is_stmt 0 discriminator 1
 171 002e 9DF80730 		ldrb	r3, [sp, #7]	@ zero_extendqisi2
 172 0032 13F0FF0F 		tst	r3, #255
 173 0036 03D1     		bne	.L14
  70:main.c        ****             for(ticks = 0; (!pin_state && ( ticks < UINT16_MAX )); ticks++)
 174              		.loc 1 70 0 discriminator 3
 175 0038 4FF6FE73 		movw	r3, #65534
 176 003c 9C42     		cmp	r4, r3
 177 003e EED9     		bls	.L15
 178              	.L14:
  74:main.c        ****             }
  75:main.c        ****             dst[REF] = ticks;
 179              		.loc 1 75 0 is_stmt 1
 180 0040 2C60     		str	r4, [r5]
  76:main.c        ****             P_charge_ref_Write(0);
 181              		.loc 1 76 0
 182 0042 0020     		movs	r0, #0
 183 0044 FFF7FEFF 		bl	P_charge_ref_Write
 184              	.LVL15:
  77:main.c        ****             break;
 185              		.loc 1 77 0
 186 0048 19E0     		b	.L9
 187              	.LVL16:
 188              	.L12:
  78:main.c        ****         case RESULT:
  79:main.c        ****             P_charge_Write(1);
 189              		.loc 1 79 0
 190 004a 0120     		movs	r0, #1
 191              	.LVL17:
 192 004c FFF7FEFF 		bl	P_charge_Write
 193              	.LVL18:
  80:main.c        ****             for(ticks = 0; (!pin_state && ( ticks < UINT16_MAX )); ticks++)
 194              		.loc 1 80 0
 195 0050 0024     		movs	r4, #0
 196 0052 07E0     		b	.L16
 197              	.LVL19:
 198              	.L18:
  81:main.c        ****             {        
  82:main.c        ****                 pin_state = P_sense_Read();
 199              		.loc 1 82 0 discriminator 4
 200 0054 FFF7FEFF 		bl	P_sense_Read
ARM GAS  C:\Users\hasel\AppData\Local\Temp\ccDGC0vk.s 			page 6


 201              	.LVL20:
 202 0058 8DF80700 		strb	r0, [sp, #7]
  83:main.c        ****                 CyDelayUs(1);
 203              		.loc 1 83 0 discriminator 4
 204 005c 0120     		movs	r0, #1
 205 005e FFF7FEFF 		bl	CyDelayUs
 206              	.LVL21:
  80:main.c        ****             for(ticks = 0; (!pin_state && ( ticks < UINT16_MAX )); ticks++)
 207              		.loc 1 80 0 discriminator 4
 208 0062 0134     		adds	r4, r4, #1
 209              	.LVL22:
 210              	.L16:
  80:main.c        ****             for(ticks = 0; (!pin_state && ( ticks < UINT16_MAX )); ticks++)
 211              		.loc 1 80 0 is_stmt 0 discriminator 1
 212 0064 9DF80730 		ldrb	r3, [sp, #7]	@ zero_extendqisi2
 213 0068 13F0FF0F 		tst	r3, #255
 214 006c 03D1     		bne	.L17
  80:main.c        ****             for(ticks = 0; (!pin_state && ( ticks < UINT16_MAX )); ticks++)
 215              		.loc 1 80 0 discriminator 3
 216 006e 4FF6FE73 		movw	r3, #65534
 217 0072 9C42     		cmp	r4, r3
 218 0074 EED9     		bls	.L18
 219              	.L17:
  84:main.c        ****             }
  85:main.c        ****             dst[RESULT] = ticks;
 220              		.loc 1 85 0 is_stmt 1
 221 0076 6C60     		str	r4, [r5, #4]
  86:main.c        ****             P_charge_Write(0);
 222              		.loc 1 86 0
 223 0078 0020     		movs	r0, #0
 224 007a FFF7FEFF 		bl	P_charge_Write
 225              	.LVL23:
 226              	.L9:
  87:main.c        ****             break;
  88:main.c        ****     
  89:main.c        ****     }
  90:main.c        **** 
  91:main.c        **** }...
 227              		.loc 1 91 0
 228 007e 03B0     		add	sp, sp, #12
 229              		.cfi_def_cfa_offset 12
 230              		@ sp needed
 231 0080 30BD     		pop	{r4, r5, pc}
 232              		.cfi_endproc
 233              	.LFE68:
 234              		.size	measure, .-measure
 235 0082 00BF     		.section	.text.main,"ax",%progbits
 236              		.align	2
 237              		.global	main
 238              		.thumb
 239              		.thumb_func
 240              		.type	main, %function
 241              	main:
 242              	.LFB65:
  19:main.c        **** {
 243              		.loc 1 19 0
 244              		.cfi_startproc
ARM GAS  C:\Users\hasel\AppData\Local\Temp\ccDGC0vk.s 			page 7


 245              		@ args = 0, pretend = 0, frame = 104
 246              		@ frame_needed = 0, uses_anonymous_args = 0
 247 0000 30B5     		push	{r4, r5, lr}
 248              		.cfi_def_cfa_offset 12
 249              		.cfi_offset 4, -12
 250              		.cfi_offset 5, -8
 251              		.cfi_offset 14, -4
 252 0002 9BB0     		sub	sp, sp, #108
 253              		.cfi_def_cfa_offset 120
  20:main.c        ****     CyGlobalIntEnable; 
 254              		.loc 1 20 0
 255              		.syntax unified
 256              	@ 20 "main.c" 1
 257 0004 62B6     		CPSIE   i
 258              	@ 0 "" 2
  23:main.c        ****     UART_Start();
 259              		.loc 1 23 0
 260              		.thumb
 261              		.syntax unified
 262 0006 FFF7FEFF 		bl	UART_Start
 263              	.LVL24:
  24:main.c        ****     UART_PutString("Starting...");
 264              		.loc 1 24 0
 265 000a 1348     		ldr	r0, .L23
 266 000c FFF7FEFF 		bl	UART_PutString
 267              	.LVL25:
 268              	.L21:
 269              	.LBB3:
  29:main.c        ****         discharge();       
 270              		.loc 1 29 0 discriminator 1
 271 0010 FFF7FEFF 		bl	discharge
 272              	.LVL26:
  30:main.c        ****         measure(REF, ticks);    
 273              		.loc 1 30 0 discriminator 1
 274 0014 114C     		ldr	r4, .L23+4
 275 0016 04F16405 		add	r5, r4, #100
 276 001a 2946     		mov	r1, r5
 277 001c 0020     		movs	r0, #0
 278 001e FFF7FEFF 		bl	measure
 279              	.LVL27:
  32:main.c        ****         sprintf(res, "Ref: %u\n\r",ticks[REF]);
 280              		.loc 1 32 0 discriminator 1
 281 0022 626E     		ldr	r2, [r4, #100]
 282 0024 0E49     		ldr	r1, .L23+8
 283 0026 01A8     		add	r0, sp, #4
 284 0028 FFF7FEFF 		bl	sprintf
 285              	.LVL28:
  33:main.c        ****         UART_PutString(res);
 286              		.loc 1 33 0 discriminator 1
 287 002c 01A8     		add	r0, sp, #4
 288 002e FFF7FEFF 		bl	UART_PutString
 289              	.LVL29:
  35:main.c        ****         discharge();        
 290              		.loc 1 35 0 discriminator 1
 291 0032 FFF7FEFF 		bl	discharge
 292              	.LVL30:
  36:main.c        ****         measure(RESULT, ticks);
ARM GAS  C:\Users\hasel\AppData\Local\Temp\ccDGC0vk.s 			page 8


 293              		.loc 1 36 0 discriminator 1
 294 0036 2946     		mov	r1, r5
 295 0038 0120     		movs	r0, #1
 296 003a FFF7FEFF 		bl	measure
 297              	.LVL31:
  38:main.c        ****         sprintf(res, "Result: %u\n\r",ticks[RESULT]);
 298              		.loc 1 38 0 discriminator 1
 299 003e A26E     		ldr	r2, [r4, #104]
 300 0040 0849     		ldr	r1, .L23+12
 301 0042 01A8     		add	r0, sp, #4
 302 0044 FFF7FEFF 		bl	sprintf
 303              	.LVL32:
  39:main.c        ****         UART_PutString(res);  
 304              		.loc 1 39 0 discriminator 1
 305 0048 01A8     		add	r0, sp, #4
 306 004a FFF7FEFF 		bl	UART_PutString
 307              	.LVL33:
  40:main.c        ****         CyDelay(100);
 308              		.loc 1 40 0 discriminator 1
 309 004e 6420     		movs	r0, #100
 310 0050 FFF7FEFF 		bl	CyDelay
 311              	.LVL34:
 312 0054 DCE7     		b	.L21
 313              	.L24:
 314 0056 00BF     		.align	2
 315              	.L23:
 316 0058 14000000 		.word	.LC1
 317 005c 00000000 		.word	.LANCHOR0
 318 0060 20000000 		.word	.LC2
 319 0064 2C000000 		.word	.LC3
 320              	.LBE3:
 321              		.cfi_endproc
 322              	.LFE65:
 323              		.size	main, .-main
 324              		.section	.rodata.str1.4,"aMS",%progbits,1
 325              		.align	2
 326              	.LC0:
 327 0000 41444320 		.ascii	"ADC reading: %d\012\015\000"
 327      72656164 
 327      696E673A 
 327      2025640A 
 327      0D00
 328 0012 0000     		.space	2
 329              	.LC1:
 330 0014 53746172 		.ascii	"Starting...\000"
 330      74696E67 
 330      2E2E2E00 
 331              	.LC2:
 332 0020 5265663A 		.ascii	"Ref: %u\012\015\000"
 332      2025750A 
 332      0D00
 333 002a 0000     		.space	2
 334              	.LC3:
 335 002c 52657375 		.ascii	"Result: %u\012\015\000"
 335      6C743A20 
 335      25750A0D 
 335      00
ARM GAS  C:\Users\hasel\AppData\Local\Temp\ccDGC0vk.s 			page 9


 336              		.bss
 337              		.align	2
 338              		.set	.LANCHOR0,. + 0
 339              		.type	adc_res.6586, %object
 340              		.size	adc_res.6586, 100
 341              	adc_res.6586:
 342 0000 00000000 		.space	100
 342      00000000 
 342      00000000 
 342      00000000 
 342      00000000 
 343              		.type	ticks.6582, %object
 344              		.size	ticks.6582, 8
 345              	ticks.6582:
 346 0064 00000000 		.space	8
 346      00000000 
 347              		.text
 348              	.Letext0:
 349              		.file 2 "c:\\program files (x86)\\cypress\\psoc creator\\4.4\\psoc creator\\import\\gnu\\arm\\5.4.
 350              		.file 3 "c:\\program files (x86)\\cypress\\psoc creator\\4.4\\psoc creator\\import\\gnu\\arm\\5.4.
 351              		.file 4 "Generated_Source\\PSoC5/cytypes.h"
 352              		.file 5 "Generated_Source\\PSoC5/ADC_SAR.h"
 353              		.file 6 "c:\\program files (x86)\\cypress\\psoc creator\\4.4\\psoc creator\\import\\gnu\\arm\\5.4.
 354              		.file 7 "Generated_Source\\PSoC5/UART.h"
 355              		.file 8 "Generated_Source\\PSoC5/P_discharge.h"
 356              		.file 9 "Generated_Source\\PSoC5/CyLib.h"
 357              		.file 10 "Generated_Source\\PSoC5/P_charge_ref.h"
 358              		.file 11 "Generated_Source\\PSoC5/P_sense.h"
 359              		.file 12 "Generated_Source\\PSoC5/P_charge.h"
 360              		.file 13 "Generated_Source\\PSoC5/core_cm3.h"