ARM GAS  C:\Users\hasel\AppData\Local\Temp\ccVHwset.s 			page 1


   1              		.syntax unified
   2              		.cpu cortex-m3
   3              		.fpu softvfp
   4              		.eabi_attribute 20, 1
   5              		.eabi_attribute 21, 1
   6              		.eabi_attribute 23, 3
   7              		.eabi_attribute 24, 1
   8              		.eabi_attribute 25, 1
   9              		.eabi_attribute 26, 1
  10              		.eabi_attribute 30, 1
  11              		.eabi_attribute 34, 1
  12              		.eabi_attribute 18, 4
  13              		.thumb
  14              		.syntax unified
  15              		.file	"pseudo_adc.c"
  16              		.text
  17              	.Ltext0:
  18              		.cfi_sections	.debug_frame
  19              		.section	.text._discharge,"ax",%progbits
  20              		.align	2
  21              		.thumb
  22              		.thumb_func
  23              		.type	_discharge, %function
  24              	_discharge:
  25              	.LFB2:
  26              		.file 1 "pseudo_adc.c"
   1:pseudo_adc.c  **** #include "pseudo_adc.h"
   2:pseudo_adc.c  **** 
   3:pseudo_adc.c  **** 
   4:pseudo_adc.c  **** // static function prototypes
   5:pseudo_adc.c  **** static void _discharge(void);
   6:pseudo_adc.c  **** static void _measure(enum time);
   7:pseudo_adc.c  **** static void _set_discharge_pin(enum pin_state);
   8:pseudo_adc.c  **** static void _set_charge_ref_pin(enum pin_state);
   9:pseudo_adc.c  **** static void _set_charge_total_pin(enum pin_state);
  10:pseudo_adc.c  **** static void _read_sense_pin(void);
  11:pseudo_adc.c  **** static uint32_t _calculate_r (void); 
  12:pseudo_adc.c  **** 
  13:pseudo_adc.c  **** // internal state machine. not exposed outside of this translation unit
  14:pseudo_adc.c  **** struct _sm 
  15:pseudo_adc.c  **** {
  16:pseudo_adc.c  ****     volatile state_t *state;
  17:pseudo_adc.c  ****     volatile pin_state_t *pin_state;
  18:pseudo_adc.c  ****     uint32_t *time_ref;
  19:pseudo_adc.c  ****     uint32_t *time_total;
  20:pseudo_adc.c  ****     uint8_t _is_initialized;
  21:pseudo_adc.c  ****     
  22:pseudo_adc.c  ****     void (*discharge)(void);
  23:pseudo_adc.c  ****     void (*measure)(enum time);
  24:pseudo_adc.c  ****     void (*set_pin[3])(enum pin_state);    
  25:pseudo_adc.c  ****     void (*read_sense_pin)(void);
  26:pseudo_adc.c  ****     uint32_t (*calculate_r)(void); 
  27:pseudo_adc.c  **** } _sm ;
  28:pseudo_adc.c  **** 
  29:pseudo_adc.c  **** // 
  30:pseudo_adc.c  **** void init_pseudo_adc(state_machine *sm_handle)
  31:pseudo_adc.c  **** {
ARM GAS  C:\Users\hasel\AppData\Local\Temp\ccVHwset.s 			page 2


  32:pseudo_adc.c  ****     _sm.state = &sm_handle->state;
  33:pseudo_adc.c  ****     _sm.pin_state = &sm_handle->pin_state;
  34:pseudo_adc.c  ****     _sm.time_ref = &sm_handle->time_ref;
  35:pseudo_adc.c  ****     _sm.time_total = &sm_handle->time_total;
  36:pseudo_adc.c  ****     
  37:pseudo_adc.c  ****     // these functions don't need to be exposed to the handle
  38:pseudo_adc.c  ****     _sm.discharge = _discharge;
  39:pseudo_adc.c  ****     _sm.measure = _measure;
  40:pseudo_adc.c  ****     _sm.set_pin[CHARGE_REF] = _set_charge_ref_pin;
  41:pseudo_adc.c  ****     _sm.set_pin[CHARGE_TOTAL] = _set_charge_total_pin;
  42:pseudo_adc.c  ****     _sm.set_pin[DRAIN] = _set_discharge_pin;
  43:pseudo_adc.c  ****     _sm.read_sense_pin = _read_sense_pin;
  44:pseudo_adc.c  ****     _sm.calculate_r = _calculate_r;  
  45:pseudo_adc.c  ****     
  46:pseudo_adc.c  ****     _sm._is_initialized = 1;
  47:pseudo_adc.c  **** }
  48:pseudo_adc.c  **** 
  49:pseudo_adc.c  **** uint8_t run_state_machine(void)
  50:pseudo_adc.c  **** {
  51:pseudo_adc.c  ****     if (!_sm._is_initialized)
  52:pseudo_adc.c  ****     {
  53:pseudo_adc.c  ****         return 255;
  54:pseudo_adc.c  ****     }
  55:pseudo_adc.c  ****          
  56:pseudo_adc.c  ****     return 0;
  57:pseudo_adc.c  **** }
  58:pseudo_adc.c  **** 
  59:pseudo_adc.c  **** static void _discharge(void)
  60:pseudo_adc.c  **** {
  27              		.loc 1 60 0
  28              		.cfi_startproc
  29              		@ args = 0, pretend = 0, frame = 0
  30              		@ frame_needed = 0, uses_anonymous_args = 0
  31              		@ link register save eliminated.
  32 0000 7047     		bx	lr
  33              		.cfi_endproc
  34              	.LFE2:
  35              		.size	_discharge, .-_discharge
  36 0002 00BF     		.section	.text._measure,"ax",%progbits
  37              		.align	2
  38              		.thumb
  39              		.thumb_func
  40              		.type	_measure, %function
  41              	_measure:
  42              	.LFB3:
  61:pseudo_adc.c  **** 
  62:pseudo_adc.c  **** }
  63:pseudo_adc.c  **** 
  64:pseudo_adc.c  **** static void _measure(enum time time)
  65:pseudo_adc.c  **** {
  43              		.loc 1 65 0
  44              		.cfi_startproc
  45              		@ args = 0, pretend = 0, frame = 0
  46              		@ frame_needed = 0, uses_anonymous_args = 0
  47              		@ link register save eliminated.
  48              	.LVL0:
  49 0000 7047     		bx	lr
ARM GAS  C:\Users\hasel\AppData\Local\Temp\ccVHwset.s 			page 3


  50              		.cfi_endproc
  51              	.LFE3:
  52              		.size	_measure, .-_measure
  53 0002 00BF     		.section	.text._set_discharge_pin,"ax",%progbits
  54              		.align	2
  55              		.thumb
  56              		.thumb_func
  57              		.type	_set_discharge_pin, %function
  58              	_set_discharge_pin:
  59              	.LFB4:
  66:pseudo_adc.c  **** 
  67:pseudo_adc.c  **** }
  68:pseudo_adc.c  **** 
  69:pseudo_adc.c  **** static void _set_discharge_pin(enum pin_state pin_state)
  70:pseudo_adc.c  **** {
  60              		.loc 1 70 0
  61              		.cfi_startproc
  62              		@ args = 0, pretend = 0, frame = 0
  63              		@ frame_needed = 0, uses_anonymous_args = 0
  64              		@ link register save eliminated.
  65              	.LVL1:
  66 0000 7047     		bx	lr
  67              		.cfi_endproc
  68              	.LFE4:
  69              		.size	_set_discharge_pin, .-_set_discharge_pin
  70 0002 00BF     		.section	.text._set_charge_ref_pin,"ax",%progbits
  71              		.align	2
  72              		.thumb
  73              		.thumb_func
  74              		.type	_set_charge_ref_pin, %function
  75              	_set_charge_ref_pin:
  76              	.LFB5:
  71:pseudo_adc.c  **** 
  72:pseudo_adc.c  **** }
  73:pseudo_adc.c  **** 
  74:pseudo_adc.c  **** static void _set_charge_ref_pin(enum pin_state pin_state)
  75:pseudo_adc.c  **** {
  77              		.loc 1 75 0
  78              		.cfi_startproc
  79              		@ args = 0, pretend = 0, frame = 0
  80              		@ frame_needed = 0, uses_anonymous_args = 0
  81              		@ link register save eliminated.
  82              	.LVL2:
  83 0000 7047     		bx	lr
  84              		.cfi_endproc
  85              	.LFE5:
  86              		.size	_set_charge_ref_pin, .-_set_charge_ref_pin
  87 0002 00BF     		.section	.text._set_charge_total_pin,"ax",%progbits
  88              		.align	2
  89              		.thumb
  90              		.thumb_func
  91              		.type	_set_charge_total_pin, %function
  92              	_set_charge_total_pin:
  93              	.LFB6:
  76:pseudo_adc.c  **** 
  77:pseudo_adc.c  **** }
  78:pseudo_adc.c  **** 
ARM GAS  C:\Users\hasel\AppData\Local\Temp\ccVHwset.s 			page 4


  79:pseudo_adc.c  **** static void _set_charge_total_pin(enum pin_state pin_state)
  80:pseudo_adc.c  **** {
  94              		.loc 1 80 0
  95              		.cfi_startproc
  96              		@ args = 0, pretend = 0, frame = 0
  97              		@ frame_needed = 0, uses_anonymous_args = 0
  98              		@ link register save eliminated.
  99              	.LVL3:
 100 0000 7047     		bx	lr
 101              		.cfi_endproc
 102              	.LFE6:
 103              		.size	_set_charge_total_pin, .-_set_charge_total_pin
 104 0002 00BF     		.section	.text._read_sense_pin,"ax",%progbits
 105              		.align	2
 106              		.thumb
 107              		.thumb_func
 108              		.type	_read_sense_pin, %function
 109              	_read_sense_pin:
 110              	.LFB7:
  81:pseudo_adc.c  **** 
  82:pseudo_adc.c  **** }
  83:pseudo_adc.c  **** 
  84:pseudo_adc.c  **** static void _read_sense_pin(void)
  85:pseudo_adc.c  **** {
 111              		.loc 1 85 0
 112              		.cfi_startproc
 113              		@ args = 0, pretend = 0, frame = 0
 114              		@ frame_needed = 0, uses_anonymous_args = 0
 115              		@ link register save eliminated.
 116 0000 7047     		bx	lr
 117              		.cfi_endproc
 118              	.LFE7:
 119              		.size	_read_sense_pin, .-_read_sense_pin
 120 0002 00BF     		.section	.text._calculate_r,"ax",%progbits
 121              		.align	2
 122              		.thumb
 123              		.thumb_func
 124              		.type	_calculate_r, %function
 125              	_calculate_r:
 126              	.LFB8:
  86:pseudo_adc.c  **** 
  87:pseudo_adc.c  **** }
  88:pseudo_adc.c  **** 
  89:pseudo_adc.c  **** static uint32_t _calculate_r (void)
  90:pseudo_adc.c  **** {
 127              		.loc 1 90 0
 128              		.cfi_startproc
 129              		@ args = 0, pretend = 0, frame = 0
 130              		@ frame_needed = 0, uses_anonymous_args = 0
 131              		@ link register save eliminated.
  91:pseudo_adc.c  **** 
  92:pseudo_adc.c  **** }...
 132              		.loc 1 92 0
 133 0000 7047     		bx	lr
 134              		.cfi_endproc
 135              	.LFE8:
 136              		.size	_calculate_r, .-_calculate_r
ARM GAS  C:\Users\hasel\AppData\Local\Temp\ccVHwset.s 			page 5


 137 0002 00BF     		.section	.text.init_pseudo_adc,"ax",%progbits
 138              		.align	2
 139              		.global	init_pseudo_adc
 140              		.thumb
 141              		.thumb_func
 142              		.type	init_pseudo_adc, %function
 143              	init_pseudo_adc:
 144              	.LFB0:
  31:pseudo_adc.c  **** {
 145              		.loc 1 31 0
 146              		.cfi_startproc
 147              		@ args = 0, pretend = 0, frame = 0
 148              		@ frame_needed = 0, uses_anonymous_args = 0
 149              		@ link register save eliminated.
 150              	.LVL4:
  32:pseudo_adc.c  ****     _sm.state = &sm_handle->state;
 151              		.loc 1 32 0
 152 0000 0C4B     		ldr	r3, .L9
 153 0002 1860     		str	r0, [r3]
  33:pseudo_adc.c  ****     _sm.pin_state = &sm_handle->pin_state;
 154              		.loc 1 33 0
 155 0004 421C     		adds	r2, r0, #1
 156 0006 5A60     		str	r2, [r3, #4]
  34:pseudo_adc.c  ****     _sm.time_ref = &sm_handle->time_ref;
 157              		.loc 1 34 0
 158 0008 021D     		adds	r2, r0, #4
 159 000a 9A60     		str	r2, [r3, #8]
  35:pseudo_adc.c  ****     _sm.time_total = &sm_handle->time_total;
 160              		.loc 1 35 0
 161 000c 0830     		adds	r0, r0, #8
 162              	.LVL5:
 163 000e D860     		str	r0, [r3, #12]
  38:pseudo_adc.c  ****     _sm.discharge = _discharge;
 164              		.loc 1 38 0
 165 0010 094A     		ldr	r2, .L9+4
 166 0012 5A61     		str	r2, [r3, #20]
  39:pseudo_adc.c  ****     _sm.measure = _measure;
 167              		.loc 1 39 0
 168 0014 094A     		ldr	r2, .L9+8
 169 0016 9A61     		str	r2, [r3, #24]
  40:pseudo_adc.c  ****     _sm.set_pin[CHARGE_REF] = _set_charge_ref_pin;
 170              		.loc 1 40 0
 171 0018 094A     		ldr	r2, .L9+12
 172 001a 1A62     		str	r2, [r3, #32]
  41:pseudo_adc.c  ****     _sm.set_pin[CHARGE_TOTAL] = _set_charge_total_pin;
 173              		.loc 1 41 0
 174 001c 094A     		ldr	r2, .L9+16
 175 001e 5A62     		str	r2, [r3, #36]
  42:pseudo_adc.c  ****     _sm.set_pin[DRAIN] = _set_discharge_pin;
 176              		.loc 1 42 0
 177 0020 094A     		ldr	r2, .L9+20
 178 0022 DA61     		str	r2, [r3, #28]
  43:pseudo_adc.c  ****     _sm.read_sense_pin = _read_sense_pin;
 179              		.loc 1 43 0
 180 0024 094A     		ldr	r2, .L9+24
 181 0026 9A62     		str	r2, [r3, #40]
  44:pseudo_adc.c  ****     _sm.calculate_r = _calculate_r;  
ARM GAS  C:\Users\hasel\AppData\Local\Temp\ccVHwset.s 			page 6


 182              		.loc 1 44 0
 183 0028 094A     		ldr	r2, .L9+28
 184 002a DA62     		str	r2, [r3, #44]
  46:pseudo_adc.c  ****     _sm._is_initialized = 1;
 185              		.loc 1 46 0
 186 002c 0122     		movs	r2, #1
 187 002e 1A74     		strb	r2, [r3, #16]
 188 0030 7047     		bx	lr
 189              	.L10:
 190 0032 00BF     		.align	2
 191              	.L9:
 192 0034 00000000 		.word	_sm
 193 0038 00000000 		.word	_discharge
 194 003c 00000000 		.word	_measure
 195 0040 00000000 		.word	_set_charge_ref_pin
 196 0044 00000000 		.word	_set_charge_total_pin
 197 0048 00000000 		.word	_set_discharge_pin
 198 004c 00000000 		.word	_read_sense_pin
 199 0050 00000000 		.word	_calculate_r
 200              		.cfi_endproc
 201              	.LFE0:
 202              		.size	init_pseudo_adc, .-init_pseudo_adc
 203              		.section	.text.run_state_machine,"ax",%progbits
 204              		.align	2
 205              		.global	run_state_machine
 206              		.thumb
 207              		.thumb_func
 208              		.type	run_state_machine, %function
 209              	run_state_machine:
 210              	.LFB1:
  50:pseudo_adc.c  **** {
 211              		.loc 1 50 0
 212              		.cfi_startproc
 213              		@ args = 0, pretend = 0, frame = 0
 214              		@ frame_needed = 0, uses_anonymous_args = 0
 215              		@ link register save eliminated.
  51:pseudo_adc.c  ****     if (!_sm._is_initialized)
 216              		.loc 1 51 0
 217 0000 034B     		ldr	r3, .L14
 218 0002 1B7C     		ldrb	r3, [r3, #16]	@ zero_extendqisi2
 219 0004 0BB9     		cbnz	r3, .L13
  53:pseudo_adc.c  ****         return 255;
 220              		.loc 1 53 0
 221 0006 FF20     		movs	r0, #255
 222 0008 7047     		bx	lr
 223              	.L13:
  56:pseudo_adc.c  ****     return 0;
 224              		.loc 1 56 0
 225 000a 0020     		movs	r0, #0
  57:pseudo_adc.c  **** }
 226              		.loc 1 57 0
 227 000c 7047     		bx	lr
 228              	.L15:
 229 000e 00BF     		.align	2
 230              	.L14:
 231 0010 00000000 		.word	_sm
 232              		.cfi_endproc
ARM GAS  C:\Users\hasel\AppData\Local\Temp\ccVHwset.s 			page 7


 233              	.LFE1:
 234              		.size	run_state_machine, .-run_state_machine
 235              		.comm	_sm,48,4
 236              		.text
 237              	.Letext0:
 238              		.file 2 "c:\\program files (x86)\\cypress\\psoc creator\\4.4\\psoc creator\\import\\gnu\\arm\\5.4.
 239              		.file 3 "c:\\program files (x86)\\cypress\\psoc creator\\4.4\\psoc creator\\import\\gnu\\arm\\5.4.
 240              		.file 4 "pseudo_adc.h"